target datalayout = "e-m:e-p270:32:32-p271:32:32-p272:64:64-i64:64-i128:128-f80:128-n8:16:32:64-S128"
target triple = "x86_64-pc-linux-gnu"

%struct.AVFilterContext = type { ptr, ptr, ptr, ptr, ptr, i32, ptr, ptr, i32, ptr, ptr, i32, i32, ptr, ptr, ptr, ptr, i32, ptr, i32, i32 }
%struct.AFormatContext = type { ptr, ptr, i32, ptr, i32, ptr, i32 }

; Function Attrs: nounwind uwtable
define internal i32 @query_formats(ptr noundef %0, ptr noundef %1, ptr noundef %2) #1 {
  %4 = alloca i32, align 4
  %5 = alloca ptr, align 8
  %6 = alloca ptr, align 8
  %7 = alloca ptr, align 8
  %8 = alloca ptr, align 8
  %9 = alloca i32, align 4
  %10 = alloca i32, align 4
  store ptr %0, ptr %5, align 8, !tbaa !4
  store ptr %1, ptr %6, align 8, !tbaa !37
  store ptr %2, ptr %7, align 8, !tbaa !37
  call void @llvm.lifetime.start.p0(i64 8, ptr %8) #6
  %11 = load ptr, ptr %5, align 8, !tbaa !4
  %12 = getelementptr inbounds nuw %struct.AVFilterContext, ptr %11, i32 0, i32 9
  %13 = load ptr, ptr %12, align 8, !tbaa !9
  store ptr %13, ptr %8, align 8, !tbaa !22
  call void @llvm.lifetime.start.p0(i64 4, ptr %9) #6
  %14 = load ptr, ptr %8, align 8, !tbaa !22
  %15 = getelementptr inbounds nuw %struct.AFormatContext, ptr %14, i32 0, i32 2
  %16 = load i32, ptr %15, align 8, !tbaa !24
  %17 = icmp ne i32 %16, 0
  br i1 %17, label %18, label %31

18:                                               ; preds = %3
  %19 = load ptr, ptr %5, align 8, !tbaa !4
  %20 = load ptr, ptr %6, align 8, !tbaa !37
  %21 = load ptr, ptr %7, align 8, !tbaa !37
  %22 = load ptr, ptr %8, align 8, !tbaa !22
  %23 = getelementptr inbounds nuw %struct.AFormatContext, ptr %22, i32 0, i32 1
  %24 = load ptr, ptr %23, align 8, !tbaa !28
  %25 = call i32 @ff_set_common_formats_from_list2(ptr noundef %19, ptr noundef %20, ptr noundef %21, ptr noundef %24)
  store i32 %25, ptr %9, align 4, !tbaa !30
  %26 = load i32, ptr %9, align 4, !tbaa !30
  %27 = icmp slt i32 %26, 0
  br i1 %27, label %28, label %30

28:                                               ; preds = %18
  %29 = load i32, ptr %9, align 4, !tbaa !30
  store i32 %29, ptr %4, align 4
  store i32 1, ptr %10, align 4
  br label %68

30:                                               ; preds = %18
  br label %31

31:                                               ; preds = %30, %3
  %32 = load ptr, ptr %8, align 8, !tbaa !22
  %33 = getelementptr inbounds nuw %struct.AFormatContext, ptr %32, i32 0, i32 4
  %34 = load i32, ptr %33, align 8, !tbaa !31
  %35 = icmp ne i32 %34, 0
  br i1 %35, label %36, label %49

36:                                               ; preds = %31
  %37 = load ptr, ptr %5, align 8, !tbaa !4
  %38 = load ptr, ptr %6, align 8, !tbaa !37
  %39 = load ptr, ptr %7, align 8, !tbaa !37
  %40 = load ptr, ptr %8, align 8, !tbaa !22
  %41 = getelementptr inbounds nuw %struct.AFormatContext, ptr %40, i32 0, i32 3
  %42 = load ptr, ptr %41, align 8, !tbaa !32
  %43 = call i32 @ff_set_common_samplerates_from_list2(ptr noundef %37, ptr noundef %38, ptr noundef %39, ptr noundef %42)
  store i32 %43, ptr %9, align 4, !tbaa !30
  %44 = load i32, ptr %9, align 4, !tbaa !30
  %45 = icmp slt i32 %44, 0
  br i1 %45, label %46, label %48

46:                                               ; preds = %36
  %47 = load i32, ptr %9, align 4, !tbaa !30
  store i32 %47, ptr %4, align 4
  store i32 1, ptr %10, align 4
  br label %68

48:                                               ; preds = %36
  br label %49

49:                                               ; preds = %48, %31
  %50 = load ptr, ptr %8, align 8, !tbaa !22
  %51 = getelementptr inbounds nuw %struct.AFormatContext, ptr %50, i32 0, i32 6
  %52 = load i32, ptr %51, align 8, !tbaa !33
  %53 = icmp ne i32 %52, 0
  br i1 %53, label %54, label %67

54:                                               ; preds = %49
  %55 = load ptr, ptr %5, align 8, !tbaa !4
  %56 = load ptr, ptr %6, align 8, !tbaa !37
  %57 = load ptr, ptr %7, align 8, !tbaa !37
  %58 = load ptr, ptr %8, align 8, !tbaa !22
  %59 = getelementptr inbounds nuw %struct.AFormatContext, ptr %58, i32 0, i32 5
  %60 = load ptr, ptr %59, align 8, !tbaa !34
  %61 = call i32 @ff_set_common_channel_layouts_from_list2(ptr noundef %55, ptr noundef %56, ptr noundef %57, ptr noundef %60)
  store i32 %61, ptr %9, align 4, !tbaa !30
  %62 = load i32, ptr %9, align 4, !tbaa !30
  %63 = icmp slt i32 %62, 0
  br i1 %63, label %64, label %66

64:                                               ; preds = %54
  %65 = load i32, ptr %9, align 4, !tbaa !30
  store i32 %65, ptr %4, align 4
  store i32 1, ptr %10, align 4
  br label %68

66:                                               ; preds = %54
  br label %67

67:                                               ; preds = %66, %49
  store i32 0, ptr %4, align 4
  store i32 1, ptr %10, align 4
  br label %68

68:                                               ; preds = %67, %64, %46, %28
  call void @llvm.lifetime.end.p0(i64 4, ptr %9) #6
  call void @llvm.lifetime.end.p0(i64 8, ptr %8) #6
  %69 = load i32, ptr %4, align 4
  ret i32 %69
}