; Function Attrs: nounwind uwtable
define internal range(i32 -2147483648, 1) i32 @query_formats(ptr noundef %0, ptr noundef %1, ptr noundef %2) #1 {
  %4 = getelementptr inbounds nuw i8, ptr %0, i64 72
  %5 = load ptr, ptr %4, align 8, !tbaa !4
  %6 = getelementptr inbounds nuw i8, ptr %5, i64 16
  %7 = load i32, ptr %6, align 8, !tbaa !20
  %.not = icmp eq i32 %7, 0
  br i1 %.not, label %13, label %8

8:                                                ; preds = %3
  %9 = getelementptr inbounds nuw i8, ptr %5, i64 8
  %10 = load ptr, ptr %9, align 8, !tbaa !24
  %11 = tail call i32 @ff_set_common_formats_from_list2(ptr noundef nonnull %0, ptr noundef %1, ptr noundef %2, ptr noundef %10) #4
  %12 = icmp slt i32 %11, 0
  br i1 %12, label %30, label %13

13:                                               ; preds = %8, %3
  %14 = getelementptr inbounds nuw i8, ptr %5, i64 32
  %15 = load i32, ptr %14, align 8, !tbaa !26
  %.not25 = icmp eq i32 %15, 0
  br i1 %.not25, label %21, label %16

16:                                               ; preds = %13
  %17 = getelementptr inbounds nuw i8, ptr %5, i64 24
  %18 = load ptr, ptr %17, align 8, !tbaa !27
  %19 = tail call i32 @ff_set_common_samplerates_from_list2(ptr noundef nonnull %0, ptr noundef %1, ptr noundef %2, ptr noundef %18) #4
  %20 = icmp slt i32 %19, 0
  br i1 %20, label %30, label %21

21:                                               ; preds = %16, %13
  %22 = getelementptr inbounds nuw i8, ptr %5, i64 48
  %23 = load i32, ptr %22, align 8, !tbaa !28
  %.not26 = icmp eq i32 %23, 0
  br i1 %.not26, label %29, label %24

24:                                               ; preds = %21
  %25 = getelementptr inbounds nuw i8, ptr %5, i64 40
  %26 = load ptr, ptr %25, align 8, !tbaa !29
  %27 = tail call i32 @ff_set_common_channel_layouts_from_list2(ptr noundef nonnull %0, ptr noundef %1, ptr noundef %2, ptr noundef %26) #4
  %28 = icmp slt i32 %27, 0
  br i1 %28, label %30, label %29

29:                                               ; preds = %24, %21
  br label %30

30:                                               ; preds = %24, %16, %8, %29
  %.0 = phi i32 [ 0, %29 ], [ %11, %8 ], [ %19, %16 ], [ %27, %24 ]
  ret i32 %.0
}